target datalayout = "e-m:e-p270:32:32-p271:32:32-p272:64:64-i64:64-i128:128-f80:128-n8:16:32:64-S128"
target triple = "x86_64-pc-linux-gnu"

%"struct.open_spiel::tarok::Contract" = type <{ i32, i32, i32, i8, i8, i8, i8 }>

; Function Attrs: mustprogress nounwind uwtable
define void @_ZN10open_spiel5tarok8ContractC2ENS0_12ContractNameEiibbb(ptr noundef nonnull align 4 dereferenceable(15) %0, i32 noundef %1, i32 noundef %2, i32 noundef %3, i1 noundef zeroext %4, i1 noundef zeroext %5, i1 noundef zeroext %6) unnamed_addr #4 align 2 {
  %8 = alloca ptr, align 8
  %9 = alloca i32, align 4
  %10 = alloca i32, align 4
  %11 = alloca i32, align 4
  %12 = alloca i8, align 1
  %13 = alloca i8, align 1
  %14 = alloca i8, align 1
  store ptr %0, ptr %8, align 8
  store i32 %1, ptr %9, align 4
  store i32 %2, ptr %10, align 4
  store i32 %3, ptr %11, align 4
  %15 = zext i1 %4 to i8
  store i8 %15, ptr %12, align 1
  %16 = zext i1 %5 to i8
  store i8 %16, ptr %13, align 1
  %17 = zext i1 %6 to i8
  store i8 %17, ptr %14, align 1
  %18 = load ptr, ptr %8, align 8
  %19 = getelementptr inbounds nuw %"struct.open_spiel::tarok::Contract", ptr %18, i32 0, i32 0
  %20 = load i32, ptr %9, align 4
  store i32 %20, ptr %19, align 4
  %21 = getelementptr inbounds nuw %"struct.open_spiel::tarok::Contract", ptr %18, i32 0, i32 1
  %22 = load i32, ptr %10, align 4
  store i32 %22, ptr %21, align 4
  %23 = getelementptr inbounds nuw %"struct.open_spiel::tarok::Contract", ptr %18, i32 0, i32 2
  %24 = load i32, ptr %11, align 4
  store i32 %24, ptr %23, align 4
  %25 = getelementptr inbounds nuw %"struct.open_spiel::tarok::Contract", ptr %18, i32 0, i32 3
  %26 = load i8, ptr %12, align 1
  %27 = trunc i8 %26 to i1
  %28 = zext i1 %27 to i8
  store i8 %28, ptr %25, align 4
  %29 = getelementptr inbounds nuw %"struct.open_spiel::tarok::Contract", ptr %18, i32 0, i32 4
  %30 = load i8, ptr %13, align 1
  %31 = trunc i8 %30 to i1
  %32 = zext i1 %31 to i8
  store i8 %32, ptr %29, align 1
  %33 = getelementptr inbounds nuw %"struct.open_spiel::tarok::Contract", ptr %18, i32 0, i32 5
  %34 = load i8, ptr %14, align 1
  %35 = trunc i8 %34 to i1
  %36 = zext i1 %35 to i8
  store i8 %36, ptr %33, align 2
  ret void
}