; Function Attrs: mustprogress nofree norecurse nosync nounwind willreturn memory(argmem: write) uwtable
define void @_ZN10open_spiel5tarok8ContractC2ENS0_12ContractNameEiibbb(ptr noundef nonnull writeonly align 4 captures(none) dereferenceable(15) initializes((0, 15)) %0, i32 noundef %1, i32 noundef %2, i32 noundef %3, i1 noundef zeroext %4, i1 noundef zeroext %5, i1 noundef zeroext %6) unnamed_addr #3 align 2 {
  %8 = zext i1 %4 to i8
  %9 = zext i1 %5 to i8
  %10 = zext i1 %6 to i8
  store i32 %1, ptr %0, align 4
  %11 = getelementptr inbounds nuw i8, ptr %0, i64 4
  store i32 %2, ptr %11, align 4
  %12 = getelementptr inbounds nuw i8, ptr %0, i64 8
  store i32 %3, ptr %12, align 4
  %13 = getelementptr inbounds nuw i8, ptr %0, i64 12
  store i8 %8, ptr %13, align 4
  %14 = getelementptr inbounds nuw i8, ptr %0, i64 13
  store i8 %9, ptr %14, align 1
  %15 = getelementptr inbounds nuw i8, ptr %0, i64 14
  store i8 %10, ptr %15, align 2
  ret void
}